target datalayout = "e-m:e-p270:32:32-p271:32:32-p272:64:64-i64:64-i128:128-f80:128-n8:16:32:64-S128"
target triple = "x86_64-pc-linux-gnu"

%struct._object = type { %union.anon, ptr }
%union.anon = type { i64 }

@.str = private unnamed_addr constant [5 x i8] c"bool\00", align 1
@_Py_FalseStruct = dso_local global { %struct._object, { i64, [1 x i32], [4 x i8] } } { %struct._object { %union.anon { i64 552977039360 }, ptr @PyBool_Type }, { i64, [1 x i32], [4 x i8] } { i64 1, [1 x i32] zeroinitializer, [4 x i8] zeroinitializer } }, align 8
@_Py_TrueStruct = dso_local global { %struct._object, { i64, [1 x i32], [4 x i8] } } { %struct._object { %union.anon { i64 552977039360 }, ptr @PyBool_Type }, { i64, [1 x i32], [4 x i8] } { i64 8, [1 x i32] [i32 1], [4 x i8] zeroinitializer } }, align 8

; Function Attrs: nounwind uwtable
define dso_local ptr @PyBool_FromLong(i64 noundef %0) #0 {
  %2 = alloca i64, align 8
  store i64 %0, ptr %2, align 8, !tbaa !4
  %3 = load i64, ptr %2, align 8, !tbaa !4
  %4 = icmp ne i64 %3, 0
  %5 = select i1 %4, ptr @_Py_TrueStruct, ptr @_Py_FalseStruct
  ret ptr %5
}

; Function Attrs: nounwind uwtable
define internal ptr @bool_new(ptr noundef %0, ptr noundef %1, ptr noundef %2) #0 {
  %4 = alloca ptr, align 8
  %5 = alloca ptr, align 8
  %6 = alloca ptr, align 8
  %7 = alloca ptr, align 8
  %8 = alloca ptr, align 8
  %9 = alloca i64, align 8
  %10 = alloca i32, align 4
  store ptr %0, ptr %5, align 8, !tbaa !11
  store ptr %1, ptr %6, align 8, !tbaa !8
  store ptr %2, ptr %7, align 8, !tbaa !8
  call void @llvm.lifetime.start.p0(i64 8, ptr %8) #4
  store ptr @_Py_FalseStruct, ptr %8, align 8, !tbaa !8
  call void @llvm.lifetime.start.p0(i64 8, ptr %9) #4
  %11 = load ptr, ptr %7, align 8, !tbaa !8
  %12 = icmp eq ptr %11, null
  br i1 %12, label %18, label %13

13:                                               ; preds = %3
  %14 = load ptr, ptr %7, align 8, !tbaa !8
  %15 = call i32 @_PyArg_NoKeywords(ptr noundef @.str, ptr noundef %14)
  %16 = icmp ne i32 %15, 0
  br i1 %16, label %18, label %17

17:                                               ; preds = %13
  store ptr null, ptr %4, align 8
  store i32 1, ptr %10, align 4
  br label %33

18:                                               ; preds = %13, %3
  %19 = load ptr, ptr %6, align 8, !tbaa !8
  %20 = call i32 (ptr, ptr, i64, i64, ...) @PyArg_UnpackTuple(ptr noundef %19, ptr noundef @.str, i64 noundef 0, i64 noundef 1, ptr noundef %8)
  %21 = icmp ne i32 %20, 0
  br i1 %21, label %23, label %22

22:                                               ; preds = %18
  store ptr null, ptr %4, align 8
  store i32 1, ptr %10, align 4
  br label %33

23:                                               ; preds = %18
  %24 = load ptr, ptr %8, align 8, !tbaa !8
  %25 = call i32 @PyObject_IsTrue(ptr noundef %24)
  %26 = sext i32 %25 to i64
  store i64 %26, ptr %9, align 8, !tbaa !4
  %27 = load i64, ptr %9, align 8, !tbaa !4
  %28 = icmp slt i64 %27, 0
  br i1 %28, label %29, label %30

29:                                               ; preds = %23
  store ptr null, ptr %4, align 8
  store i32 1, ptr %10, align 4
  br label %33

30:                                               ; preds = %23
  %31 = load i64, ptr %9, align 8, !tbaa !4
  %32 = call ptr @PyBool_FromLong(i64 noundef %31)
  store ptr %32, ptr %4, align 8
  store i32 1, ptr %10, align 4
  br label %33

33:                                               ; preds = %30, %29, %22, %17
  call void @llvm.lifetime.end.p0(i64 8, ptr %9) #4
  call void @llvm.lifetime.end.p0(i64 8, ptr %8) #4
  %34 = load ptr, ptr %4, align 8
  ret ptr %34
}