; Function Attrs: nounwind uwtable
define internal ptr @bool_new(ptr readnone captures(none) %0, ptr noundef %1, ptr noundef %2) #1 {
  %4 = alloca ptr, align 8
  call void @llvm.lifetime.start.p0(i64 8, ptr nonnull %4) #4
  store ptr @_Py_FalseStruct, ptr %4, align 8, !tbaa !4
  %5 = icmp eq ptr %2, null
  br i1 %5, label %8, label %6

6:                                                ; preds = %3
  %7 = tail call i32 @_PyArg_NoKeywords(ptr noundef nonnull @.str, ptr noundef nonnull %2) #4
  %.not = icmp eq i32 %7, 0
  br i1 %.not, label %16, label %8

8:                                                ; preds = %6, %3
  %9 = call i32 (ptr, ptr, i64, i64, ...) @PyArg_UnpackTuple(ptr noundef %1, ptr noundef nonnull @.str, i64 noundef 0, i64 noundef 1, ptr noundef nonnull %4) #4
  %.not7 = icmp eq i32 %9, 0
  br i1 %.not7, label %16, label %10

10:                                               ; preds = %8
  %11 = load ptr, ptr %4, align 8, !tbaa !4
  %12 = call i32 @PyObject_IsTrue(ptr noundef %11) #4
  %13 = icmp slt i32 %12, 0
  br i1 %13, label %16, label %14

14:                                               ; preds = %10
  %.not.i = icmp eq i32 %12, 0
  %15 = select i1 %.not.i, ptr @_Py_FalseStruct, ptr @_Py_TrueStruct
  br label %16

16:                                               ; preds = %10, %8, %6, %14
  %.0 = phi ptr [ %15, %14 ], [ null, %6 ], [ null, %8 ], [ null, %10 ]
  call void @llvm.lifetime.end.p0(i64 8, ptr nonnull %4) #4
  ret ptr %.0
}